Certificate:
    Data:
        Version: 3 (0x2)
        Serial Number:
            bc:92:27:a5:db:f2:27:b9:99:13:0e:39:e8:f3:e7:24
        Signature Algorithm: sha256WithRSAEncryption
        Issuer: CN=Easy-RSA CA
        Validity
            Not Before: Sep  2 08:03:47 2021 GMT
            Not After : Dec  6 08:03:47 2023 GMT
        Subject: CN=server
        Subject Public Key Info:
            Public Key Algorithm: rsaEncryption
                RSA Public-Key: (2048 bit)
                Modulus:
                    00:a9:00:0a:93:3a:2e:7a:0f:86:30:ae:85:79:aa:
                    fe:06:87:d0:0b:67:b1:20:10:cd:88:ce:15:77:dd:
                    5d:23:3e:73:e3:cb:24:ea:5b:36:03:77:fb:f9:63:
                    93:36:14:7e:b7:c6:cd:5f:8e:01:5c:0a:a8:84:09:
                    46:e1:8f:10:5b:78:cc:ea:3c:cb:9a:ef:c5:42:bc:
                    f9:e0:79:3a:40:cd:c7:c9:74:85:bb:7b:4d:04:d7:
                    2d:fe:5b:4a:e6:ff:b9:3d:4b:1e:e4:ee:0b:66:3c:
                    17:db:6f:71:23:e5:64:30:33:c8:f9:d9:f8:1d:f6:
                    9f:6f:78:c0:05:28:68:fd:c4:ff:3a:24:1c:f4:08:
                    60:fa:a4:e5:43:b0:3a:d1:89:68:c2:02:f8:93:2a:
                    e5:7c:f5:63:d0:3a:0d:92:26:32:02:cc:e1:e4:ea:
                    56:06:b9:d9:73:c3:f1:4f:de:59:1c:e2:57:64:78:
                    d9:b1:d2:39:2e:2e:2d:6e:14:dd:c9:2e:c3:74:6c:
                    a4:92:0e:64:45:e3:a4:66:d2:3a:98:9b:40:03:14:
                    db:7c:1c:e9:f7:f3:cb:96:ab:ef:4c:8b:a3:1c:60:
                    e3:7a:68:7c:fb:c7:c3:d9:16:82:8a:2e:0f:29:74:
                    f0:78:a4:c6:c3:d7:1b:30:a0:fe:23:a5:6e:5f:ed:
                    57:01
                Exponent: 65537 (0x10001)
        X509v3 extensions:
            X509v3 Basic Constraints: 
                CA:FALSE
            X509v3 Subject Key Identifier: 
                CF:FC:29:0A:22:9A:CC:1F:EE:10:44:F2:69:69:6F:9C:38:53:5B:6A
            X509v3 Authority Key Identifier: 
                keyid:9F:BA:08:BD:A4:1B:C3:30:2A:C1:42:7A:40:AF:B4:99:B9:FE:BA:5A
                DirName:/CN=Easy-RSA CA
                serial:1B:EF:D3:D1:CB:8D:3D:CF:51:F1:EF:2F:BF:27:38:AE:F9:80:89:76

            X509v3 Extended Key Usage: 
                TLS Web Server Authentication
            X509v3 Key Usage: 
                Digital Signature, Key Encipherment
            X509v3 Subject Alternative Name: 
                DNS:server
    Signature Algorithm: sha256WithRSAEncryption
         b2:2e:6d:9d:c9:65:74:4b:0f:2d:a1:c9:e5:99:fd:22:6a:05:
         44:0c:57:ed:27:f5:af:e9:57:77:c9:6f:61:f0:9b:35:83:d2:
         a0:79:ba:50:ac:39:06:65:31:6b:ab:b1:9a:f8:10:80:0b:10:
         ab:fe:89:31:2b:a3:08:ac:fe:6b:a5:75:3d:fd:6e:69:22:0b:
         18:be:36:93:5b:56:3b:3f:ee:b1:2c:f1:14:c4:c9:40:aa:68:
         a0:d2:d5:ac:ac:be:a7:73:38:1e:aa:af:d7:34:cc:bc:fe:fb:
         7c:73:44:d4:3b:dc:2e:1e:34:b3:65:ca:94:6f:5a:5f:7c:c6:
         1e:e1:c5:a8:bd:9d:cf:4d:ff:1c:db:a2:14:db:f7:de:2d:99:
         79:21:57:d6:61:1e:5e:6e:6c:03:85:24:f8:69:cf:b6:5e:2e:
         aa:ec:7a:b4:c1:77:bf:a3:dc:f1:d5:59:75:09:5d:d2:ba:0b:
         05:03:65:b4:f9:94:e3:f2:45:df:31:1e:c3:da:65:3e:6d:ac:
         ef:b7:8c:f3:44:f1:93:31:e8:ee:0e:66:fc:9c:4a:a6:77:f8:
         3a:c3:53:f3:6e:79:93:41:96:5d:a5:50:e7:2d:95:ec:88:35:
         85:d2:92:26:7a:75:8e:ee:67:99:74:27:57:a4:de:50:99:0f:
         30:25:b3:32
-----BEGIN CERTIFICATE-----
MIIDaDCCAlCgAwIBAgIRALySJ6Xb8ie5mRMOOejz5yQwDQYJKoZIhvcNAQELBQAw
FjEUMBIGA1UEAwwLRWFzeS1SU0EgQ0EwHhcNMjEwOTAyMDgwMzQ3WhcNMjMxMjA2
MDgwMzQ3WjARMQ8wDQYDVQQDDAZzZXJ2ZXIwggEiMA0GCSqGSIb3DQEBAQUAA4IB
DwAwggEKAoIBAQCpAAqTOi56D4YwroV5qv4Gh9ALZ7EgEM2IzhV33V0jPnPjyyTq
WzYDd/v5Y5M2FH63xs1fjgFcCqiECUbhjxBbeMzqPMua78VCvPngeTpAzcfJdIW7
e00E1y3+W0rm/7k9Sx7k7gtmPBfbb3Ej5WQwM8j52fgd9p9veMAFKGj9xP86JBz0
CGD6pOVDsDrRiWjCAviTKuV89WPQOg2SJjICzOHk6lYGudlzw/FP3lkc4ldkeNmx
0jkuLi1uFN3JLsN0bKSSDmRF46Rm0jqYm0ADFNt8HOn388uWq+9Mi6McYON6aHz7
x8PZFoKKLg8pdPB4pMbD1xswoP4jpW5f7VcBAgMBAAGjgbUwgbIwCQYDVR0TBAIw
ADAdBgNVHQ4EFgQUz/wpCiKazB/uEETyaWlvnDhTW2owUQYDVR0jBEowSIAUn7oI
vaQbwzAqwUJ6QK+0mbn+ulqhGqQYMBYxFDASBgNVBAMMC0Vhc3ktUlNBIENBghQb
79PRy409z1Hx7y+/Jziu+YCJdjATBgNVHSUEDDAKBggrBgEFBQcDATALBgNVHQ8E
BAMCBaAwEQYDVR0RBAowCIIGc2VydmVyMA0GCSqGSIb3DQEBCwUAA4IBAQCyLm2d
yWV0Sw8tocnlmf0iagVEDFftJ/Wv6Vd3yW9h8Js1g9KgebpQrDkGZTFrq7Ga+BCA
CxCr/okxK6MIrP5rpXU9/W5pIgsYvjaTW1Y7P+6xLPEUxMlAqmig0tWsrL6nczge
qq/XNMy8/vt8c0TUO9wuHjSzZcqUb1pffMYe4cWovZ3PTf8c26IU2/feLZl5IVfW
YR5ebmwDhST4ac+2Xi6q7Hq0wXe/o9zx1Vl1CV3SugsFA2W0+ZTj8kXfMR7D2mU+
bazvt4zzRPGTMejuDmb8nEqmd/g6w1PzbnmTQZZdpVDnLZXsiDWF0pImenWO7meZ
dCdXpN5QmQ8wJbMy
-----END CERTIFICATE-----
